target datalayout = "e-m:e-p270:32:32-p271:32:32-p272:64:64-i64:64-i128:128-f80:128-n8:16:32:64-S128"
target triple = "x86_64-pc-linux-gnu"

%"class.duckdb::DbpEncoder" = type { i64, i64, i64, i64, [2048 x i64], i64, [8 x i8], [2048 x i8] }

; Function Attrs: mustprogress nounwind uwtable
define linkonce_odr noundef i64 @_ZN6duckdb8MinValueIlEET_S1_S1_(i64 noundef %0, i64 noundef %1) #1 comdat {
  %3 = alloca i64, align 8
  %4 = alloca i64, align 8
  store i64 %0, ptr %3, align 8, !tbaa !10
  store i64 %1, ptr %4, align 8, !tbaa !10
  %5 = load i64, ptr %3, align 8, !tbaa !10
  %6 = load i64, ptr %4, align 8, !tbaa !10
  %7 = icmp slt i64 %5, %6
  br i1 %7, label %8, label %10

8:                                                ; preds = %2
  %9 = load i64, ptr %3, align 8, !tbaa !10
  br label %12

10:                                               ; preds = %2
  %11 = load i64, ptr %4, align 8, !tbaa !10
  br label %12

12:                                               ; preds = %10, %8
  %13 = phi i64 [ %9, %8 ], [ %11, %10 ]
  ret i64 %13
}

; Function Attrs: mustprogress uwtable
define linkonce_odr void @_ZN6duckdb10DbpEncoder10WriteValueERNS_11WriteStreamERKl(ptr noundef nonnull align 8 dereferenceable(18480) %0, ptr noundef nonnull align 8 dereferenceable(8) %1, ptr noundef nonnull align 8 dereferenceable(8) %2) #0 comdat align 2 {
  %4 = alloca ptr, align 8
  %5 = alloca ptr, align 8
  %6 = alloca ptr, align 8
  %7 = alloca i64, align 8
  store ptr %0, ptr %4, align 8, !tbaa !25
  store ptr %1, ptr %5, align 8, !tbaa !27
  store ptr %2, ptr %6, align 8, !tbaa !29
  %8 = load ptr, ptr %4, align 8
  call void @llvm.lifetime.start.p0(i64 8, ptr %7) #18
  %9 = load ptr, ptr %6, align 8, !tbaa !29
  %10 = load i64, ptr %9, align 8, !tbaa !10
  %11 = getelementptr inbounds nuw %"class.duckdb::DbpEncoder", ptr %8, i32 0, i32 2
  %12 = load i64, ptr %11, align 8, !tbaa !34
  %13 = sub i64 %10, %12
  store i64 %13, ptr %7, align 8, !tbaa !10
  %14 = load ptr, ptr %6, align 8, !tbaa !29
  %15 = load i64, ptr %14, align 8, !tbaa !10
  %16 = getelementptr inbounds nuw %"class.duckdb::DbpEncoder", ptr %8, i32 0, i32 2
  store i64 %15, ptr %16, align 8, !tbaa !34
  %17 = getelementptr inbounds nuw %"class.duckdb::DbpEncoder", ptr %8, i32 0, i32 3
  %18 = load i64, ptr %17, align 8, !tbaa !35
  %19 = load i64, ptr %7, align 8, !tbaa !10
  %20 = call noundef i64 @_ZN6duckdb8MinValueIlEET_S1_S1_(i64 noundef %18, i64 noundef %19)
  %21 = getelementptr inbounds nuw %"class.duckdb::DbpEncoder", ptr %8, i32 0, i32 3
  store i64 %20, ptr %21, align 8, !tbaa !35
  %22 = load i64, ptr %7, align 8, !tbaa !10
  %23 = getelementptr inbounds nuw %"class.duckdb::DbpEncoder", ptr %8, i32 0, i32 4
  %24 = getelementptr inbounds nuw %"class.duckdb::DbpEncoder", ptr %8, i32 0, i32 5
  %25 = load i64, ptr %24, align 8, !tbaa !36
  %26 = add i64 %25, 1
  store i64 %26, ptr %24, align 8, !tbaa !36
  %27 = getelementptr inbounds nuw [2048 x i64], ptr %23, i64 0, i64 %25
  store i64 %22, ptr %27, align 8, !tbaa !10
  %28 = getelementptr inbounds nuw %"class.duckdb::DbpEncoder", ptr %8, i32 0, i32 5
  %29 = load i64, ptr %28, align 8, !tbaa !36
  %30 = icmp eq i64 %29, 2048
  br i1 %30, label %31, label %33

31:                                               ; preds = %3
  %32 = load ptr, ptr %5, align 8, !tbaa !27
  call void @_ZN6duckdb10DbpEncoder10WriteBlockERNS_11WriteStreamE(ptr noundef nonnull align 8 dereferenceable(18480) %8, ptr noundef nonnull align 8 dereferenceable(8) %32)
  br label %33

33:                                               ; preds = %31, %3
  call void @llvm.lifetime.end.p0(i64 8, ptr %7) #18
  ret void
}

; Function Attrs: mustprogress nounwind uwtable
define linkonce_odr noundef i64 @_ZN6duckdb17UnsafeNumericCastIlmvEET_T0_(i64 noundef %0) #1 comdat {
  %2 = alloca i64, align 8
  store i64 %0, ptr %2, align 8, !tbaa !10
  %3 = load i64, ptr %2, align 8, !tbaa !10
  ret i64 %3
}

; Function Attrs: mustprogress uwtable
define void @_ZN6duckdb11dbp_encoder10WriteValueImEEvRNS_10DbpEncoderERNS_11WriteStreamERKT_(ptr noundef nonnull align 8 dereferenceable(18480) %0, ptr noundef nonnull align 8 dereferenceable(8) %1, ptr noundef nonnull align 8 dereferenceable(8) %2) #0 {
  %4 = alloca ptr, align 8
  %5 = alloca ptr, align 8
  %6 = alloca ptr, align 8
  %7 = alloca i64, align 8
  store ptr %0, ptr %4, align 8, !tbaa !25
  store ptr %1, ptr %5, align 8, !tbaa !27
  store ptr %2, ptr %6, align 8, !tbaa !29
  %8 = load ptr, ptr %4, align 8, !tbaa !25
  %9 = load ptr, ptr %5, align 8, !tbaa !27
  call void @llvm.lifetime.start.p0(i64 8, ptr %7) #18
  %10 = load ptr, ptr %6, align 8, !tbaa !29
  %11 = load i64, ptr %10, align 8, !tbaa !10
  %12 = call noundef i64 @_ZN6duckdb17UnsafeNumericCastIlmvEET_T0_(i64 noundef %11)
  store i64 %12, ptr %7, align 8, !tbaa !10
  call void @_ZN6duckdb10DbpEncoder10WriteValueERNS_11WriteStreamERKl(ptr noundef nonnull align 8 dereferenceable(18480) %8, ptr noundef nonnull align 8 dereferenceable(8) %9, ptr noundef nonnull align 8 dereferenceable(8) %7)
  call void @llvm.lifetime.end.p0(i64 8, ptr %7) #18
  ret void
}